target datalayout = "e-m:e-p270:32:32-p271:32:32-p272:64:64-i64:64-i128:128-f80:128-n8:16:32:64-S128"
target triple = "x86_64-unknown-linux-gnu"

%"struct.rocksdb::BlockBasedTableOptions" = type { %"class.std::shared_ptr", i8, i8, i8, i8, %"struct.rocksdb::MetadataCacheOptions", i8, i8, double, i8, i8, %"class.std::shared_ptr.0", %"class.std::shared_ptr.3", i64, i32, i32, i32, i64, %"struct.rocksdb::CacheUsageOptions", i8, i8, i8, %"class.std::shared_ptr.9", i8, i8, i8, i32, i32, i8, i8, i8, i64, i8, i64, i64 }
%"class.std::shared_ptr" = type { %"class.std::__shared_ptr" }
%"class.std::__shared_ptr" = type { ptr, %"class.std::__shared_count" }
%"class.std::__shared_count" = type { ptr }
%"struct.rocksdb::MetadataCacheOptions" = type { i32, i32, i32 }
%"class.std::shared_ptr.0" = type { %"class.std::__shared_ptr.1" }
%"class.std::__shared_ptr.1" = type { ptr, %"class.std::__shared_count" }
%"class.std::shared_ptr.3" = type { %"class.std::__shared_ptr.4" }
%"class.std::__shared_ptr.4" = type { ptr, %"class.std::__shared_count" }
%"struct.rocksdb::CacheUsageOptions" = type { %"struct.rocksdb::CacheEntryRoleOptions", %"class.std::map" }
%"struct.rocksdb::CacheEntryRoleOptions" = type { i32 }
%"class.std::map" = type { %"class.std::_Rb_tree" }
%"class.std::_Rb_tree" = type { %"struct.std::_Rb_tree<rocksdb::CacheEntryRole, std::pair<const rocksdb::CacheEntryRole, rocksdb::CacheEntryRoleOptions>, std::_Select1st<std::pair<const rocksdb::CacheEntryRole, rocksdb::CacheEntryRoleOptions>>, std::less<rocksdb::CacheEntryRole>>::_Rb_tree_impl" }
%"struct.std::_Rb_tree<rocksdb::CacheEntryRole, std::pair<const rocksdb::CacheEntryRole, rocksdb::CacheEntryRoleOptions>, std::_Select1st<std::pair<const rocksdb::CacheEntryRole, rocksdb::CacheEntryRoleOptions>>, std::less<rocksdb::CacheEntryRole>>::_Rb_tree_impl" = type { %"struct.std::_Rb_tree_key_compare", %"struct.std::_Rb_tree_header" }
%"struct.std::_Rb_tree_key_compare" = type { %"struct.std::less" }
%"struct.std::less" = type { i8 }
%"struct.std::_Rb_tree_header" = type { %"struct.std::_Rb_tree_node_base", i64 }
%"struct.std::_Rb_tree_node_base" = type { i32, ptr, ptr, ptr }
%"class.std::shared_ptr.9" = type { %"class.std::__shared_ptr.10" }
%"class.std::__shared_ptr.10" = type { ptr, %"class.std::__shared_count" }
%"class.rocksdb::FlushBlockBySizePolicy" = type { %"class.rocksdb::FlushBlockPolicy", i64, i64, i8, ptr }
%"class.rocksdb::FlushBlockPolicy" = type { ptr }

@_ZTVN7rocksdb22FlushBlockBySizePolicyE = linkonce_odr unnamed_addr constant { [5 x ptr] } { [5 x ptr] [ptr null, ptr null, ptr @_ZN7rocksdb22FlushBlockBySizePolicy6UpdateERKNS_5SliceES3_, ptr @_ZN7rocksdb22FlushBlockBySizePolicyD2Ev, ptr @_ZN7rocksdb22FlushBlockBySizePolicyD0Ev] }, comdat, align 8
@_ZTVN7rocksdb16FlushBlockPolicyE = linkonce_odr unnamed_addr constant { [5 x ptr] } { [5 x ptr] [ptr null, ptr null, ptr @__cxa_pure_virtual, ptr @_ZN7rocksdb16FlushBlockPolicyD2Ev, ptr @_ZN7rocksdb16FlushBlockPolicyD0Ev] }, comdat, align 8

; Function Attrs: mustprogress nounwind uwtable
define linkonce_odr void @_ZN7rocksdb16FlushBlockPolicyC2Ev(ptr noundef nonnull align 8 dereferenceable(8) %this) unnamed_addr #1 comdat align 2 {
entry:
  %this.addr = alloca ptr, align 8
  store ptr %this, ptr %this.addr, align 8
  %this1 = load ptr, ptr %this.addr, align 8
  store ptr getelementptr inbounds ({ [5 x ptr] }, ptr @_ZTVN7rocksdb16FlushBlockPolicyE, i32 0, i32 0, i32 2), ptr %this1, align 8
  ret void
}

; Function Attrs: mustprogress nounwind uwtable
define linkonce_odr void @_ZN7rocksdb22FlushBlockBySizePolicyC2EmmbRKNS_12BlockBuilderE(ptr noundef nonnull align 8 dereferenceable(40) %this, i64 noundef %block_size, i64 noundef %block_size_deviation, i1 noundef zeroext %align, ptr noundef nonnull align 8 dereferenceable(176) %data_block_builder) unnamed_addr #1 comdat align 2 {
entry:
  %this.addr = alloca ptr, align 8
  %block_size.addr = alloca i64, align 8
  %block_size_deviation.addr = alloca i64, align 8
  %align.addr = alloca i8, align 1
  %data_block_builder.addr = alloca ptr, align 8
  store ptr %this, ptr %this.addr, align 8
  store i64 %block_size, ptr %block_size.addr, align 8
  store i64 %block_size_deviation, ptr %block_size_deviation.addr, align 8
  %frombool = zext i1 %align to i8
  store i8 %frombool, ptr %align.addr, align 1
  store ptr %data_block_builder, ptr %data_block_builder.addr, align 8
  %this1 = load ptr, ptr %this.addr, align 8
  call void @_ZN7rocksdb16FlushBlockPolicyC2Ev(ptr noundef nonnull align 8 dereferenceable(8) %this1) #3
  store ptr getelementptr inbounds ({ [5 x ptr] }, ptr @_ZTVN7rocksdb22FlushBlockBySizePolicyE, i32 0, i32 0, i32 2), ptr %this1, align 8
  %block_size_ = getelementptr inbounds %"class.rocksdb::FlushBlockBySizePolicy", ptr %this1, i32 0, i32 1
  %0 = load i64, ptr %block_size.addr, align 8
  store i64 %0, ptr %block_size_, align 8
  %block_size_deviation_limit_ = getelementptr inbounds %"class.rocksdb::FlushBlockBySizePolicy", ptr %this1, i32 0, i32 2
  %1 = load i64, ptr %block_size.addr, align 8
  %2 = load i64, ptr %block_size_deviation.addr, align 8
  %sub = sub i64 100, %2
  %mul = mul i64 %1, %sub
  %add = add i64 %mul, 99
  %div = udiv i64 %add, 100
  store i64 %div, ptr %block_size_deviation_limit_, align 8
  %align_ = getelementptr inbounds %"class.rocksdb::FlushBlockBySizePolicy", ptr %this1, i32 0, i32 3
  %3 = load i8, ptr %align.addr, align 1
  %tobool = trunc i8 %3 to i1
  %frombool2 = zext i1 %tobool to i8
  store i8 %frombool2, ptr %align_, align 8
  %data_block_builder_ = getelementptr inbounds %"class.rocksdb::FlushBlockBySizePolicy", ptr %this1, i32 0, i32 4
  %4 = load ptr, ptr %data_block_builder.addr, align 8
  store ptr %4, ptr %data_block_builder_, align 8
  ret void
}

; Function Attrs: mustprogress uwtable
define noundef ptr @_ZNK7rocksdb29FlushBlockBySizePolicyFactory19NewFlushBlockPolicyERKNS_22BlockBasedTableOptionsERKNS_12BlockBuilderE(ptr noundef nonnull align 8 dereferenceable(32) %this, ptr noundef nonnull align 8 dereferenceable(248) %table_options, ptr noundef nonnull align 8 dereferenceable(176) %data_block_builder) unnamed_addr #0 align 2 personality ptr @__gxx_personality_v0 {
entry:
  %this.addr = alloca ptr, align 8
  %table_options.addr = alloca ptr, align 8
  %data_block_builder.addr = alloca ptr, align 8
  %exn.slot = alloca ptr, align 8
  %ehselector.slot = alloca i32, align 4
  store ptr %this, ptr %this.addr, align 8
  store ptr %table_options, ptr %table_options.addr, align 8
  store ptr %data_block_builder, ptr %data_block_builder.addr, align 8
  %call = call noalias noundef nonnull ptr @_Znwm(i64 noundef 40) #16
  %0 = load ptr, ptr %table_options.addr, align 8
  %block_size = getelementptr inbounds %"struct.rocksdb::BlockBasedTableOptions", ptr %0, i32 0, i32 13
  %1 = load i64, ptr %block_size, align 8
  %2 = load ptr, ptr %table_options.addr, align 8
  %block_size_deviation = getelementptr inbounds %"struct.rocksdb::BlockBasedTableOptions", ptr %2, i32 0, i32 14
  %3 = load i32, ptr %block_size_deviation, align 8
  %conv = sext i32 %3 to i64
  %4 = load ptr, ptr %table_options.addr, align 8
  %block_align = getelementptr inbounds %"struct.rocksdb::BlockBasedTableOptions", ptr %4, i32 0, i32 29
  %5 = load i8, ptr %block_align, align 1
  %tobool = trunc i8 %5 to i1
  %6 = load ptr, ptr %data_block_builder.addr, align 8
  invoke void @_ZN7rocksdb22FlushBlockBySizePolicyC2EmmbRKNS_12BlockBuilderE(ptr noundef nonnull align 8 dereferenceable(40) %call, i64 noundef %1, i64 noundef %conv, i1 noundef zeroext %tobool, ptr noundef nonnull align 8 dereferenceable(176) %6)
          to label %invoke.cont unwind label %lpad

invoke.cont:                                      ; preds = %entry
  ret ptr %call

lpad:                                             ; preds = %entry
  %7 = landingpad { ptr, i32 }
          cleanup
  %8 = extractvalue { ptr, i32 } %7, 0
  store ptr %8, ptr %exn.slot, align 8
  %9 = extractvalue { ptr, i32 } %7, 1
  store i32 %9, ptr %ehselector.slot, align 4
  call void @_ZdlPv(ptr noundef %call) #17
  br label %eh.resume

eh.resume:                                        ; preds = %lpad
  %exn = load ptr, ptr %exn.slot, align 8
  %sel = load i32, ptr %ehselector.slot, align 4
  %lpad.val = insertvalue { ptr, i32 } poison, ptr %exn, 0
  %lpad.val2 = insertvalue { ptr, i32 } %lpad.val, i32 %sel, 1
  resume { ptr, i32 } %lpad.val2
}