; Function Attrs: mustprogress uwtable
define noalias noundef nonnull ptr @_ZNK7rocksdb29FlushBlockBySizePolicyFactory19NewFlushBlockPolicyERKNS_22BlockBasedTableOptionsERKNS_12BlockBuilderE(ptr nocapture nonnull readnone align 8 %this, ptr nocapture noundef nonnull readonly align 8 dereferenceable(248) %table_options, ptr noundef nonnull align 8 dereferenceable(176) %data_block_builder) unnamed_addr #2 align 2 personality ptr @__gxx_personality_v0 {
entry:
  %call = tail call noalias noundef nonnull dereferenceable(40) ptr @_Znwm(i64 noundef 40) #20
  %block_size = getelementptr inbounds i8, ptr %table_options, i64 88
  %0 = load i64, ptr %block_size, align 8
  %block_size_deviation = getelementptr inbounds i8, ptr %table_options, i64 96
  %1 = load i32, ptr %block_size_deviation, align 8
  %conv = sext i32 %1 to i64
  %block_align = getelementptr inbounds i8, ptr %table_options, i64 213
  %2 = load i8, ptr %block_align, align 1
  %3 = and i8 %2, 1
  store ptr getelementptr inbounds ({ [5 x ptr] }, ptr @_ZTVN7rocksdb22FlushBlockBySizePolicyE, i64 0, i32 0, i64 2), ptr %call, align 8
  %block_size_.i = getelementptr inbounds i8, ptr %call, i64 8
  store i64 %0, ptr %block_size_.i, align 8
  %block_size_deviation_limit_.i = getelementptr inbounds i8, ptr %call, i64 16
  %sub.i = sub nsw i64 100, %conv
  %mul.i = mul i64 %sub.i, %0
  %add.i = add i64 %mul.i, 99
  %div.i = udiv i64 %add.i, 100
  store i64 %div.i, ptr %block_size_deviation_limit_.i, align 8
  %align_.i = getelementptr inbounds i8, ptr %call, i64 24
  store i8 %3, ptr %align_.i, align 8
  %data_block_builder_.i = getelementptr inbounds i8, ptr %call, i64 32
  store ptr %data_block_builder, ptr %data_block_builder_.i, align 8
  ret ptr %call
}